target datalayout = "e-m:e-p270:32:32-p271:32:32-p272:64:64-i64:64-i128:128-f80:128-n8:16:32:64-S128"
target triple = "x86_64-pc-linux-gnu"

%"class.llvm::MachO::ArchitectureSet" = type { i32 }

; Function Attrs: mustprogress nounwind uwtable
define dso_local noundef i64 @_ZNK4llvm5MachO15ArchitectureSet5countEv(ptr noundef nonnull align 4 dereferenceable(4) %0) #0 align 2 {
  %2 = alloca ptr, align 8
  %3 = alloca i64, align 8
  %4 = alloca i32, align 4
  store ptr %0, ptr %2, align 8
  %5 = load ptr, ptr %2, align 8
  store i64 0, ptr %3, align 8
  store i32 0, ptr %4, align 4
  br label %6

6:                                                ; preds = %21, %1
  %7 = load i32, ptr %4, align 4
  %8 = zext i32 %7 to i64
  %9 = icmp ult i64 %8, 32
  br i1 %9, label %10, label %24

10:                                               ; preds = %6
  %11 = getelementptr inbounds nuw %"class.llvm::MachO::ArchitectureSet", ptr %5, i32 0, i32 0
  %12 = load i32, ptr %11, align 4
  %13 = load i32, ptr %4, align 4
  %14 = shl i32 1, %13
  %15 = and i32 %12, %14
  %16 = icmp ne i32 %15, 0
  br i1 %16, label %17, label %20

17:                                               ; preds = %10
  %18 = load i64, ptr %3, align 8
  %19 = add i64 %18, 1
  store i64 %19, ptr %3, align 8
  br label %20

20:                                               ; preds = %17, %10
  br label %21

21:                                               ; preds = %20
  %22 = load i32, ptr %4, align 4
  %23 = add i32 %22, 1
  store i32 %23, ptr %4, align 4
  br label %6, !llvm.loop !4

24:                                               ; preds = %6
  %25 = load i64, ptr %3, align 8
  ret i64 %25
}