; Function Attrs: mustprogress nofree norecurse nosync nounwind willreturn memory(argmem: read) uwtable
define dso_local noundef i64 @_ZNK4llvm5MachO15ArchitectureSet5countEv(ptr nocapture noundef nonnull readonly align 4 dereferenceable(4) %0) local_unnamed_addr #2 align 2 {
  %2 = load i32, ptr %0, align 4
  br label %3

3:                                                ; preds = %1, %3
  %.07 = phi i32 [ 0, %1 ], [ %7, %3 ]
  %.056 = phi i64 [ 0, %1 ], [ %spec.select, %3 ]
  %4 = lshr i32 %2, %.07
  %5 = and i32 %4, 1
  %6 = zext nneg i32 %5 to i64
  %spec.select = add i64 %.056, %6
  %7 = add nuw nsw i32 %.07, 1
  %exitcond.not = icmp eq i32 %7, 32
  br i1 %exitcond.not, label %8, label %3, !llvm.loop !4

8:                                                ; preds = %3
  ret i64 %spec.select
}